target datalayout = "e-m:e-p270:32:32-p271:32:32-p272:64:64-i64:64-i128:128-f80:128-n8:16:32:64-S128"
target triple = "x86_64-unknown-linux-gnu"

%"class.hermes::vm::CompressedPointer" = type { %"class.hermes::vm::BasedPointer" }
%"class.hermes::vm::BasedPointer" = type { i32 }
%"class.hermes::vm::HadesGC::OldGen" = type { ptr, %"class.std::deque", %"class.hermes::ExponentialMovingAverage", i64, i64, %"class.hermes::BitArray", %"class.std::deque.4", %"struct.std::array.10", %"struct.hermes::vm::HadesGC::OldGen::SweepIterator" }
%"class.std::deque" = type { %"class.std::_Deque_base" }
%"class.std::_Deque_base" = type { %"struct.std::_Deque_base<hermes::vm::HadesGC::HeapSegment, std::allocator<hermes::vm::HadesGC::HeapSegment>>::_Deque_impl" }
%"struct.std::_Deque_base<hermes::vm::HadesGC::HeapSegment, std::allocator<hermes::vm::HadesGC::HeapSegment>>::_Deque_impl" = type { %"struct.std::_Deque_base<hermes::vm::HadesGC::HeapSegment, std::allocator<hermes::vm::HadesGC::HeapSegment>>::_Deque_impl_data" }
%"struct.std::_Deque_base<hermes::vm::HadesGC::HeapSegment, std::allocator<hermes::vm::HadesGC::HeapSegment>>::_Deque_impl_data" = type { ptr, i64, %"struct.std::_Deque_iterator", %"struct.std::_Deque_iterator" }
%"struct.std::_Deque_iterator" = type { ptr, ptr, ptr, ptr }
%"class.hermes::ExponentialMovingAverage" = type { double, double }
%"class.hermes::BitArray" = type { %"struct.std::array" }
%"struct.std::array" = type { [5 x i64] }
%"class.std::deque.4" = type { %"class.std::_Deque_base.5" }
%"class.std::_Deque_base.5" = type { %"struct.std::_Deque_base<std::array<hermes::vm::HadesGC::OldGen::SegmentBucket, 267>, std::allocator<std::array<hermes::vm::HadesGC::OldGen::SegmentBucket, 267>>>::_Deque_impl" }
%"struct.std::_Deque_base<std::array<hermes::vm::HadesGC::OldGen::SegmentBucket, 267>, std::allocator<std::array<hermes::vm::HadesGC::OldGen::SegmentBucket, 267>>>::_Deque_impl" = type { %"struct.std::_Deque_base<std::array<hermes::vm::HadesGC::OldGen::SegmentBucket, 267>, std::allocator<std::array<hermes::vm::HadesGC::OldGen::SegmentBucket, 267>>>::_Deque_impl_data" }
%"struct.std::_Deque_base<std::array<hermes::vm::HadesGC::OldGen::SegmentBucket, 267>, std::allocator<std::array<hermes::vm::HadesGC::OldGen::SegmentBucket, 267>>>::_Deque_impl_data" = type { ptr, i64, %"struct.std::_Deque_iterator.9", %"struct.std::_Deque_iterator.9" }
%"struct.std::_Deque_iterator.9" = type { ptr, ptr, ptr, ptr }
%"struct.std::array.10" = type { [267 x %"struct.hermes::vm::HadesGC::OldGen::SegmentBucket"] }
%"struct.hermes::vm::HadesGC::OldGen::SegmentBucket" = type <{ ptr, ptr, %"class.hermes::vm::AssignableCompressedPointer", [4 x i8] }>
%"class.hermes::vm::AssignableCompressedPointer" = type { %"class.hermes::vm::CompressedPointer" }
%"struct.hermes::vm::HadesGC::OldGen::SweepIterator" = type { i64, i64, i64 }
%"class.hermes::vm::GCExecTrace" = type { i8 }
%"class.std::shared_ptr" = type { %"class.std::__shared_ptr" }
%"class.std::__shared_ptr" = type { ptr, %"class.std::__shared_count" }
%"class.std::__shared_count" = type { ptr }
%"class.std::function" = type { %"class.std::_Function_base", ptr }
%"class.std::_Function_base" = type { %"union.std::_Any_data", ptr }
%"union.std::_Any_data" = type { %"union.std::_Nocopy_types" }
%"union.std::_Nocopy_types" = type { { i64, i64 } }
%"class.std::vector" = type { %"struct.std::_Vector_base" }
%"struct.std::_Vector_base" = type { %"struct.std::_Vector_base<hermes::vm::GCAnalyticsEvent, std::allocator<hermes::vm::GCAnalyticsEvent>>::_Vector_impl" }
%"struct.std::_Vector_base<hermes::vm::GCAnalyticsEvent, std::allocator<hermes::vm::GCAnalyticsEvent>>::_Vector_impl" = type { %"struct.std::_Vector_base<hermes::vm::GCAnalyticsEvent, std::allocator<hermes::vm::GCAnalyticsEvent>>::_Vector_impl_data" }
%"struct.std::_Vector_base<hermes::vm::GCAnalyticsEvent, std::allocator<hermes::vm::GCAnalyticsEvent>>::_Vector_impl_data" = type { ptr, ptr, ptr }
%"class.std::chrono::time_point" = type { %"class.std::chrono::duration" }
%"class.std::chrono::duration" = type { i64 }
%"class.std::chrono::duration.14" = type { i64 }
%"struct.hermes::vm::GCBase::CumulativeHeapStats" = type { i32, %"class.hermes::StatsAccumulator", %"class.hermes::StatsAccumulator", i32, %"class.hermes::StatsAccumulator.15", %"class.hermes::StatsAccumulator.15" }
%"class.hermes::StatsAccumulator" = type { i32, double, double, double, double }
%"class.hermes::StatsAccumulator.15" = type { i32, i64, i32, i32, double }
%"class.std::__cxx11::basic_string" = type { %"struct.std::__cxx11::basic_string<char>::_Alloc_hider", i64, %union.anon.19 }
%"struct.std::__cxx11::basic_string<char>::_Alloc_hider" = type { ptr }
%union.anon.19 = type { i64, [8 x i8] }
%"class.std::deque.20" = type { %"class.std::_Deque_base.21" }
%"class.std::_Deque_base.21" = type { %"struct.std::_Deque_base<hermes::vm::WeakRefSlot, std::allocator<hermes::vm::WeakRefSlot>>::_Deque_impl" }
%"struct.std::_Deque_base<hermes::vm::WeakRefSlot, std::allocator<hermes::vm::WeakRefSlot>>::_Deque_impl" = type { %"struct.std::_Deque_base<hermes::vm::WeakRefSlot, std::allocator<hermes::vm::WeakRefSlot>>::_Deque_impl_data" }
%"struct.std::_Deque_base<hermes::vm::WeakRefSlot, std::allocator<hermes::vm::WeakRefSlot>>::_Deque_impl_data" = type { ptr, i64, %"struct.std::_Deque_iterator.25", %"struct.std::_Deque_iterator.25" }
%"struct.std::_Deque_iterator.25" = type { ptr, ptr, ptr, ptr }
%"class.std::recursive_mutex" = type { %"class.std::__recursive_mutex_base" }
%"class.std::__recursive_mutex_base" = type { %union.pthread_mutex_t }
%union.pthread_mutex_t = type { %struct.__pthread_mutex_s }
%struct.__pthread_mutex_s = type { i32, i32, i32, i32, i32, i16, i16, %struct.__pthread_internal_list }
%struct.__pthread_internal_list = type { ptr, ptr }
%"class.hermes::vm::GCBase::IDTracker" = type { %"class.std::recursive_mutex", i32, [4 x i8], %"class.llvh::DenseMap", %"class.llvh::DenseMap", %"class.llvh::DenseMap.26", %"class.llvh::DenseMap.29", %"class.llvh::DenseMap", %"class.llvh::DenseMap.32" }
%"class.llvh::DenseMap.26" = type <{ ptr, i32, i32, i32, [4 x i8] }>
%"class.llvh::DenseMap.29" = type <{ ptr, i32, i32, i32, [4 x i8] }>
%"class.llvh::DenseMap" = type <{ ptr, i32, i32, i32, [4 x i8] }>
%"class.llvh::DenseMap.32" = type <{ ptr, i32, i32, i32, [4 x i8] }>
%"class.std::function.35" = type { %"class.std::_Function_base", ptr }
%"class.hermes::vm::HadesGC" = type { %"class.hermes::vm::GCBase.base", i64, i64, %"class.std::vector.38", %"class.std::shared_ptr.43", %"class.hermes::vm::HadesGC::HeapSegment", %"class.hermes::vm::AssignableCompressedPointer", %"class.std::vector.46", double, %"class.hermes::vm::HadesGC::OldGen", %"class.std::recursive_mutex", %"struct.std::atomic", %"class.std::_V2::condition_variable_any", i8, i8, %"class.std::unique_ptr", %"class.std::unique_ptr.56", %"class.std::future", i8, i8, i8, double, %"class.hermes::ExponentialMovingAverage", %"class.std::unique_ptr.67", %"class.std::unique_ptr.67", %"struct.hermes::vm::GCBase::CumulativeHeapStats", %"struct.hermes::vm::GCBase::CumulativeHeapStats", %"class.hermes::ExponentialMovingAverage", i64, %"struct.hermes::vm::HadesGC::CompacteeState", i64, %"struct.hermes::vm::HadesGC::NativeIDs" }
%"class.hermes::vm::GCBase.base" = type <{ ptr, i32, [4 x i8], i64, %"class.hermes::vm::GCExecTrace", [7 x i8], ptr, ptr, %"class.std::shared_ptr", i32, [4 x i8], %"class.std::function", %"class.std::vector", i8, i8, i8, i8, [4 x i8], %"class.std::chrono::time_point", %"class.std::chrono::duration.14", i64, i64, %"struct.hermes::vm::GCBase::CumulativeHeapStats", %"class.std::__cxx11::basic_string", %"class.std::deque.20", ptr, %"class.std::recursive_mutex", %"class.hermes::vm::GCBase::IDTracker", [3 x i64], %"class.std::function.35", i32, i8 }>
%"class.std::vector.38" = type { %"struct.std::_Vector_base.39" }
%"struct.std::_Vector_base.39" = type { %"struct.std::_Vector_base<unsigned long, std::allocator<unsigned long>>::_Vector_impl" }
%"struct.std::_Vector_base<unsigned long, std::allocator<unsigned long>>::_Vector_impl" = type { %"struct.std::_Vector_base<unsigned long, std::allocator<unsigned long>>::_Vector_impl_data" }
%"struct.std::_Vector_base<unsigned long, std::allocator<unsigned long>>::_Vector_impl_data" = type { ptr, ptr, ptr }
%"class.std::shared_ptr.43" = type { %"class.std::__shared_ptr.44" }
%"class.std::__shared_ptr.44" = type { ptr, %"class.std::__shared_count" }
%"class.hermes::vm::HadesGC::HeapSegment" = type { %"class.hermes::vm::AlignedHeapSegment" }
%"class.hermes::vm::AlignedHeapSegment" = type { %"struct.hermes::vm::AlignedStorage", ptr, ptr }
%"struct.hermes::vm::AlignedStorage" = type { ptr, ptr }
%"class.std::vector.46" = type { %"struct.std::_Vector_base.47" }
%"struct.std::_Vector_base.47" = type { %"struct.std::_Vector_base<hermes::vm::GCCell *, std::allocator<hermes::vm::GCCell *>>::_Vector_impl" }
%"struct.std::_Vector_base<hermes::vm::GCCell *, std::allocator<hermes::vm::GCCell *>>::_Vector_impl" = type { %"struct.std::_Vector_base<hermes::vm::GCCell *, std::allocator<hermes::vm::GCCell *>>::_Vector_impl_data" }
%"struct.std::_Vector_base<hermes::vm::GCCell *, std::allocator<hermes::vm::GCCell *>>::_Vector_impl_data" = type { ptr, ptr, ptr }
%"struct.std::atomic" = type { %"struct.std::__atomic_base" }
%"struct.std::__atomic_base" = type { i8 }
%"class.std::_V2::condition_variable_any" = type { %"class.std::condition_variable", %"class.std::shared_ptr.51" }
%"class.std::condition_variable" = type { %"class.std::__condvar" }
%"class.std::__condvar" = type { %union.pthread_cond_t }
%union.pthread_cond_t = type { %struct.__pthread_cond_s }
%struct.__pthread_cond_s = type { %union.__atomic_wide_counter, %union.__atomic_wide_counter, [2 x i32], [2 x i32], i32, i32, [2 x i32] }
%union.__atomic_wide_counter = type { i64 }
%"class.std::shared_ptr.51" = type { %"class.std::__shared_ptr.52" }
%"class.std::__shared_ptr.52" = type { ptr, %"class.std::__shared_count" }
%"class.std::unique_ptr" = type { %"struct.std::__uniq_ptr_data" }
%"struct.std::__uniq_ptr_data" = type { %"class.std::__uniq_ptr_impl" }
%"class.std::__uniq_ptr_impl" = type { %"class.std::tuple" }
%"class.std::tuple" = type { %"struct.std::_Tuple_impl" }
%"struct.std::_Tuple_impl" = type { %"struct.std::_Head_base.55" }
%"struct.std::_Head_base.55" = type { ptr }
%"class.std::unique_ptr.56" = type { %"struct.std::__uniq_ptr_data.57" }
%"struct.std::__uniq_ptr_data.57" = type { %"class.std::__uniq_ptr_impl.58" }
%"class.std::__uniq_ptr_impl.58" = type { %"class.std::tuple.59" }
%"class.std::tuple.59" = type { %"struct.std::_Tuple_impl.60" }
%"struct.std::_Tuple_impl.60" = type { %"struct.std::_Head_base.63" }
%"struct.std::_Head_base.63" = type { ptr }
%"class.std::future" = type { %"class.std::__basic_future" }
%"class.std::__basic_future" = type { %"class.std::shared_ptr.64" }
%"class.std::shared_ptr.64" = type { %"class.std::__shared_ptr.65" }
%"class.std::__shared_ptr.65" = type { ptr, %"class.std::__shared_count" }
%"class.std::unique_ptr.67" = type { %"struct.std::__uniq_ptr_data.68" }
%"struct.std::__uniq_ptr_data.68" = type { %"class.std::__uniq_ptr_impl.69" }
%"class.std::__uniq_ptr_impl.69" = type { %"class.std::tuple.70" }
%"class.std::tuple.70" = type { %"struct.std::_Tuple_impl.71" }
%"struct.std::_Tuple_impl.71" = type { %"struct.std::_Head_base.74" }
%"struct.std::_Head_base.74" = type { ptr }
%"struct.hermes::vm::HadesGC::CompacteeState" = type { ptr, %"class.hermes::vm::AssignableCompressedPointer", ptr, %"class.hermes::vm::AssignableCompressedPointer", %"class.std::shared_ptr.75" }
%"class.std::shared_ptr.75" = type { %"class.std::__shared_ptr.76" }
%"class.std::__shared_ptr.76" = type { ptr, %"class.std::__shared_count" }
%"struct.hermes::vm::HadesGC::NativeIDs" = type { i32, i32 }

; Function Attrs: mustprogress nounwind uwtable
define linkonce_odr noundef i64 @_ZSt16__deque_buf_sizem(i64 noundef %__size) #0 comdat {
entry:
  %__size.addr = alloca i64, align 8
  store i64 %__size, ptr %__size.addr, align 8
  %0 = load i64, ptr %__size.addr, align 8
  %cmp = icmp ult i64 %0, 512
  br i1 %cmp, label %cond.true, label %cond.false

cond.true:                                        ; preds = %entry
  %1 = load i64, ptr %__size.addr, align 8
  %div = udiv i64 512, %1
  br label %cond.end

cond.false:                                       ; preds = %entry
  br label %cond.end

cond.end:                                         ; preds = %cond.false, %cond.true
  %cond = phi i64 [ %div, %cond.true ], [ 1, %cond.false ]
  ret i64 %cond
}

; Function Attrs: mustprogress nounwind uwtable
define linkonce_odr hidden noundef i64 @_ZNSt15_Deque_iteratorIN6hermes2vm7HadesGC11HeapSegmentERS3_PS3_E14_S_buffer_sizeEv() #0 comdat align 2 {
entry:
  %call = call noundef i64 @_ZSt16__deque_buf_sizem(i64 noundef 32)
  ret i64 %call
}

; Function Attrs: mustprogress nounwind uwtable
define linkonce_odr noundef i64 @_ZStmiRKSt15_Deque_iteratorIN6hermes2vm7HadesGC11HeapSegmentERS3_PS3_ES8_(ptr noundef nonnull align 8 dereferenceable(32) %__x, ptr noundef nonnull align 8 dereferenceable(32) %__y) #0 comdat {
entry:
  %__x.addr = alloca ptr, align 8
  %__y.addr = alloca ptr, align 8
  store ptr %__x, ptr %__x.addr, align 8
  store ptr %__y, ptr %__y.addr, align 8
  %call = call noundef i64 @_ZNSt15_Deque_iteratorIN6hermes2vm7HadesGC11HeapSegmentERS3_PS3_E14_S_buffer_sizeEv() #18
  %0 = load ptr, ptr %__x.addr, align 8
  %_M_node = getelementptr inbounds %"struct.std::_Deque_iterator", ptr %0, i32 0, i32 3
  %1 = load ptr, ptr %_M_node, align 8
  %2 = load ptr, ptr %__y.addr, align 8
  %_M_node1 = getelementptr inbounds %"struct.std::_Deque_iterator", ptr %2, i32 0, i32 3
  %3 = load ptr, ptr %_M_node1, align 8
  %sub.ptr.lhs.cast = ptrtoint ptr %1 to i64
  %sub.ptr.rhs.cast = ptrtoint ptr %3 to i64
  %sub.ptr.sub = sub i64 %sub.ptr.lhs.cast, %sub.ptr.rhs.cast
  %sub.ptr.div = sdiv exact i64 %sub.ptr.sub, 8
  %4 = load ptr, ptr %__x.addr, align 8
  %_M_node2 = getelementptr inbounds %"struct.std::_Deque_iterator", ptr %4, i32 0, i32 3
  %5 = load ptr, ptr %_M_node2, align 8
  %tobool = icmp ne ptr %5, null
  %conv = zext i1 %tobool to i64
  %sub = sub nsw i64 %sub.ptr.div, %conv
  %mul = mul nsw i64 %call, %sub
  %6 = load ptr, ptr %__x.addr, align 8
  %_M_cur = getelementptr inbounds %"struct.std::_Deque_iterator", ptr %6, i32 0, i32 0
  %7 = load ptr, ptr %_M_cur, align 8
  %8 = load ptr, ptr %__x.addr, align 8
  %_M_first = getelementptr inbounds %"struct.std::_Deque_iterator", ptr %8, i32 0, i32 1
  %9 = load ptr, ptr %_M_first, align 8
  %sub.ptr.lhs.cast3 = ptrtoint ptr %7 to i64
  %sub.ptr.rhs.cast4 = ptrtoint ptr %9 to i64
  %sub.ptr.sub5 = sub i64 %sub.ptr.lhs.cast3, %sub.ptr.rhs.cast4
  %sub.ptr.div6 = sdiv exact i64 %sub.ptr.sub5, 32
  %add = add nsw i64 %mul, %sub.ptr.div6
  %10 = load ptr, ptr %__y.addr, align 8
  %_M_last = getelementptr inbounds %"struct.std::_Deque_iterator", ptr %10, i32 0, i32 2
  %11 = load ptr, ptr %_M_last, align 8
  %12 = load ptr, ptr %__y.addr, align 8
  %_M_cur7 = getelementptr inbounds %"struct.std::_Deque_iterator", ptr %12, i32 0, i32 0
  %13 = load ptr, ptr %_M_cur7, align 8
  %sub.ptr.lhs.cast8 = ptrtoint ptr %11 to i64
  %sub.ptr.rhs.cast9 = ptrtoint ptr %13 to i64
  %sub.ptr.sub10 = sub i64 %sub.ptr.lhs.cast8, %sub.ptr.rhs.cast9
  %sub.ptr.div11 = sdiv exact i64 %sub.ptr.sub10, 32
  %add12 = add nsw i64 %add, %sub.ptr.div11
  ret i64 %add12
}

; Function Attrs: mustprogress nounwind uwtable
define linkonce_odr hidden noundef zeroext i1 @_ZNK6hermes2vm14AlignedStoragecvbEv(ptr noundef nonnull align 8 dereferenceable(16) %this) #0 comdat align 2 {
entry:
  %this.addr = alloca ptr, align 8
  store ptr %this, ptr %this.addr, align 8
  %this1 = load ptr, ptr %this.addr, align 8
  %lowLim_ = getelementptr inbounds %"struct.hermes::vm::AlignedStorage", ptr %this1, i32 0, i32 0
  %0 = load ptr, ptr %lowLim_, align 8
  %tobool = icmp ne ptr %0, null
  ret i1 %tobool
}

; Function Attrs: mustprogress nounwind uwtable
define linkonce_odr hidden noundef i64 @_ZNKSt5dequeIN6hermes2vm7HadesGC11HeapSegmentESaIS3_EE4sizeEv(ptr noundef nonnull align 8 dereferenceable(80) %this) #0 comdat align 2 {
entry:
  %this.addr = alloca ptr, align 8
  store ptr %this, ptr %this.addr, align 8
  %this1 = load ptr, ptr %this.addr, align 8
  %_M_impl = getelementptr inbounds %"class.std::_Deque_base", ptr %this1, i32 0, i32 0
  %_M_finish = getelementptr inbounds %"struct.std::_Deque_base<hermes::vm::HadesGC::HeapSegment, std::allocator<hermes::vm::HadesGC::HeapSegment>>::_Deque_impl_data", ptr %_M_impl, i32 0, i32 3
  %_M_impl2 = getelementptr inbounds %"class.std::_Deque_base", ptr %this1, i32 0, i32 0
  %_M_start = getelementptr inbounds %"struct.std::_Deque_base<hermes::vm::HadesGC::HeapSegment, std::allocator<hermes::vm::HadesGC::HeapSegment>>::_Deque_impl_data", ptr %_M_impl2, i32 0, i32 2
  %call = call noundef i64 @_ZStmiRKSt15_Deque_iteratorIN6hermes2vm7HadesGC11HeapSegmentERS3_PS3_ES8_(ptr noundef nonnull align 8 dereferenceable(32) %_M_finish, ptr noundef nonnull align 8 dereferenceable(32) %_M_start) #18
  ret i64 %call
}

; Function Attrs: mustprogress nounwind uwtable
define hidden noundef i64 @_ZNK6hermes2vm7HadesGC6OldGen13externalBytesEv(ptr noundef nonnull align 8 dereferenceable(6672) %this) #0 align 2 {
entry:
  %this.addr = alloca ptr, align 8
  store ptr %this, ptr %this.addr, align 8
  %this1 = load ptr, ptr %this.addr, align 8
  %externalBytes_ = getelementptr inbounds %"class.hermes::vm::HadesGC::OldGen", ptr %this1, i32 0, i32 4
  %0 = load i64, ptr %externalBytes_, align 8
  ret i64 %0
}

; Function Attrs: mustprogress nounwind uwtable
define hidden noundef i64 @_ZNK6hermes2vm7HadesGC24getYoungGenExternalBytesEv(ptr noundef nonnull align 8 dereferenceable(8152) %this) #0 align 2 {
entry:
  %this.addr = alloca ptr, align 8
  store ptr %this, ptr %this.addr, align 8
  %this1 = load ptr, ptr %this.addr, align 8
  %ygExternalBytes_ = getelementptr inbounds %"class.hermes::vm::HadesGC", ptr %this1, i32 0, i32 28
  %0 = load i64, ptr %ygExternalBytes_, align 8
  ret i64 %0
}

; Function Attrs: mustprogress nounwind uwtable
define linkonce_odr hidden noundef i64 @_ZN6hermes2vm14AlignedStorage4sizeEv() #0 comdat align 2 {
entry:
  ret i64 4194304
}

; Function Attrs: mustprogress nounwind uwtable
define linkonce_odr hidden noundef zeroext i1 @_ZNKSt12__shared_ptrIN6hermes2vm7HadesGC11HeapSegmentELN9__gnu_cxx12_Lock_policyE2EEcvbEv(ptr noundef nonnull align 8 dereferenceable(16) %this) #0 comdat align 2 {
entry:
  %this.addr = alloca ptr, align 8
  store ptr %this, ptr %this.addr, align 8
  %this1 = load ptr, ptr %this.addr, align 8
  %_M_ptr = getelementptr inbounds %"class.std::__shared_ptr.76", ptr %this1, i32 0, i32 0
  %0 = load ptr, ptr %_M_ptr, align 8
  %cmp = icmp ne ptr %0, null
  ret i1 %cmp
}

; Function Attrs: mustprogress nounwind uwtable
define linkonce_odr hidden noundef zeroext i1 @_ZNK6hermes2vm18AlignedHeapSegmentcvbEv(ptr noundef nonnull align 8 dereferenceable(32) %this) #0 comdat align 2 {
entry:
  %this.addr = alloca ptr, align 8
  store ptr %this, ptr %this.addr, align 8
  %this1 = load ptr, ptr %this.addr, align 8
  %storage_ = getelementptr inbounds %"class.hermes::vm::AlignedHeapSegment", ptr %this1, i32 0, i32 0
  %call = call noundef zeroext i1 @_ZNK6hermes2vm14AlignedStoragecvbEv(ptr noundef nonnull align 8 dereferenceable(16) %storage_)
  ret i1 %call
}

; Function Attrs: mustprogress nounwind uwtable
define hidden noundef i64 @_ZNK6hermes2vm7HadesGC6OldGen11numSegmentsEv(ptr noundef nonnull align 8 dereferenceable(6672) %this) #0 align 2 {
entry:
  %this.addr = alloca ptr, align 8
  store ptr %this, ptr %this.addr, align 8
  %this1 = load ptr, ptr %this.addr, align 8
  %segments_ = getelementptr inbounds %"class.hermes::vm::HadesGC::OldGen", ptr %this1, i32 0, i32 1
  %call = call noundef i64 @_ZNKSt5dequeIN6hermes2vm7HadesGC11HeapSegmentESaIS3_EE4sizeEv(ptr noundef nonnull align 8 dereferenceable(80) %segments_) #18
  ret i64 %call
}

; Function Attrs: mustprogress nounwind uwtable
define hidden noundef i64 @_ZNK6hermes2vm7HadesGC13externalBytesEv(ptr noundef nonnull align 8 dereferenceable(8152) %this) #0 align 2 {
entry:
  %this.addr = alloca ptr, align 8
  store ptr %this, ptr %this.addr, align 8
  %this1 = load ptr, ptr %this.addr, align 8
  %call = call noundef i64 @_ZNK6hermes2vm7HadesGC24getYoungGenExternalBytesEv(ptr noundef nonnull align 8 dereferenceable(8152) %this1)
  %oldGen_ = getelementptr inbounds %"class.hermes::vm::HadesGC", ptr %this1, i32 0, i32 9
  %call2 = call noundef i64 @_ZNK6hermes2vm7HadesGC6OldGen13externalBytesEv(ptr noundef nonnull align 8 dereferenceable(6672) %oldGen_)
  %add = add i64 %call, %call2
  ret i64 %add
}

; Function Attrs: mustprogress nounwind uwtable
define hidden noundef i64 @_ZNK6hermes2vm7HadesGC16segmentFootprintEv(ptr noundef nonnull align 8 dereferenceable(8152) %this) #0 align 2 {
entry:
  %this.addr = alloca ptr, align 8
  %totalSegments = alloca i64, align 8
  store ptr %this, ptr %this.addr, align 8
  %this1 = load ptr, ptr %this.addr, align 8
  %oldGen_ = getelementptr inbounds %"class.hermes::vm::HadesGC", ptr %this1, i32 0, i32 9
  %call = call noundef i64 @_ZNK6hermes2vm7HadesGC6OldGen11numSegmentsEv(ptr noundef nonnull align 8 dereferenceable(6672) %oldGen_)
  %youngGen_ = getelementptr inbounds %"class.hermes::vm::HadesGC", ptr %this1, i32 0, i32 5
  %call2 = call noundef zeroext i1 @_ZNK6hermes2vm18AlignedHeapSegmentcvbEv(ptr noundef nonnull align 8 dereferenceable(32) %youngGen_)
  %cond = select i1 %call2, i32 1, i32 0
  %conv = sext i32 %cond to i64
  %add = add i64 %call, %conv
  %compactee_ = getelementptr inbounds %"class.hermes::vm::HadesGC", ptr %this1, i32 0, i32 29
  %segment = getelementptr inbounds %"struct.hermes::vm::HadesGC::CompacteeState", ptr %compactee_, i32 0, i32 4
  %call3 = call noundef zeroext i1 @_ZNKSt12__shared_ptrIN6hermes2vm7HadesGC11HeapSegmentELN9__gnu_cxx12_Lock_policyE2EEcvbEv(ptr noundef nonnull align 8 dereferenceable(16) %segment) #18
  %cond4 = select i1 %call3, i32 1, i32 0
  %conv5 = sext i32 %cond4 to i64
  %add6 = add i64 %add, %conv5
  store i64 %add6, ptr %totalSegments, align 8
  %0 = load i64, ptr %totalSegments, align 8
  %call7 = call noundef i64 @_ZN6hermes2vm14AlignedStorage4sizeEv()
  %mul = mul i64 %0, %call7
  ret i64 %mul
}

; Function Attrs: mustprogress nounwind uwtable
define hidden noundef i64 @_ZNK6hermes2vm7HadesGC13heapFootprintEv(ptr noundef nonnull align 8 dereferenceable(8152) %this) #0 align 2 {
entry:
  %this.addr = alloca ptr, align 8
  store ptr %this, ptr %this.addr, align 8
  %this1 = load ptr, ptr %this.addr, align 8
  %call = call noundef i64 @_ZNK6hermes2vm7HadesGC16segmentFootprintEv(ptr noundef nonnull align 8 dereferenceable(8152) %this1)
  %call2 = call noundef i64 @_ZNK6hermes2vm7HadesGC13externalBytesEv(ptr noundef nonnull align 8 dereferenceable(8152) %this1)
  %add = add i64 %call, %call2
  ret i64 %add
}