; Function Attrs: mustprogress nofree norecurse nosync nounwind willreturn memory(argmem: read) uwtable
define hidden noundef i64 @_ZNK6hermes2vm7HadesGC13heapFootprintEv(ptr nocapture noundef nonnull readonly align 8 dereferenceable(8152) %this) local_unnamed_addr #8 align 2 {
entry:
  %_M_finish.i.i.i = getelementptr inbounds i8, ptr %this, i64 928
  %_M_start.i.i.i = getelementptr inbounds i8, ptr %this, i64 896
  %_M_node.i.i.i.i = getelementptr inbounds i8, ptr %this, i64 952
  %0 = load ptr, ptr %_M_node.i.i.i.i, align 8
  %_M_node1.i.i.i.i = getelementptr inbounds i8, ptr %this, i64 920
  %1 = load ptr, ptr %_M_node1.i.i.i.i, align 8
  %sub.ptr.lhs.cast.i.i.i.i = ptrtoint ptr %0 to i64
  %sub.ptr.rhs.cast.i.i.i.i = ptrtoint ptr %1 to i64
  %sub.ptr.sub.i.i.i.i = sub i64 %sub.ptr.lhs.cast.i.i.i.i, %sub.ptr.rhs.cast.i.i.i.i
  %sub.ptr.div.i.i.i.i = ashr exact i64 %sub.ptr.sub.i.i.i.i, 3
  %tobool.i.i.i.i = icmp ne ptr %0, null
  %conv.neg.i.i.i.i = sext i1 %tobool.i.i.i.i to i64
  %sub.i.i.i.i = add nsw i64 %sub.ptr.div.i.i.i.i, %conv.neg.i.i.i.i
  %mul.i.i.i.i = shl nsw i64 %sub.i.i.i.i, 4
  %2 = load ptr, ptr %_M_finish.i.i.i, align 8
  %_M_first.i.i.i.i = getelementptr inbounds i8, ptr %this, i64 936
  %3 = load ptr, ptr %_M_first.i.i.i.i, align 8
  %sub.ptr.lhs.cast3.i.i.i.i = ptrtoint ptr %2 to i64
  %sub.ptr.rhs.cast4.i.i.i.i = ptrtoint ptr %3 to i64
  %sub.ptr.sub5.i.i.i.i = sub i64 %sub.ptr.lhs.cast3.i.i.i.i, %sub.ptr.rhs.cast4.i.i.i.i
  %sub.ptr.div6.i.i.i.i = lshr exact i64 %sub.ptr.sub5.i.i.i.i, 5
  %add.i.i.i.i = add i64 %mul.i.i.i.i, %sub.ptr.div6.i.i.i.i
  %_M_last.i.i.i.i = getelementptr inbounds i8, ptr %this, i64 912
  %4 = load ptr, ptr %_M_last.i.i.i.i, align 8
  %5 = load ptr, ptr %_M_start.i.i.i, align 8
  %sub.ptr.lhs.cast8.i.i.i.i = ptrtoint ptr %4 to i64
  %sub.ptr.rhs.cast9.i.i.i.i = ptrtoint ptr %5 to i64
  %sub.ptr.sub10.i.i.i.i = sub i64 %sub.ptr.lhs.cast8.i.i.i.i, %sub.ptr.rhs.cast9.i.i.i.i
  %sub.ptr.div11.i.i.i.i = lshr exact i64 %sub.ptr.sub10.i.i.i.i, 5
  %add12.i.i.i.i = add i64 %add.i.i.i.i, %sub.ptr.div11.i.i.i.i
  %youngGen_.i = getelementptr inbounds i8, ptr %this, i64 800
  %6 = load ptr, ptr %youngGen_.i, align 8
  %tobool.i.i.i = icmp ne ptr %6, null
  %conv.i = zext i1 %tobool.i.i.i to i64
  %add.i = add i64 %add12.i.i.i.i, %conv.i
  %segment.i = getelementptr inbounds i8, ptr %this, i64 8120
  %7 = load ptr, ptr %segment.i, align 8
  %cmp.i.i = icmp ne ptr %7, null
  %conv5.i = zext i1 %cmp.i.i to i64
  %add6.i = add i64 %add.i, %conv5.i
  %mul.i = shl i64 %add6.i, 22
  %ygExternalBytes_.i.i = getelementptr inbounds i8, ptr %this, i64 8080
  %8 = load i64, ptr %ygExternalBytes_.i.i, align 8
  %externalBytes_.i.i = getelementptr inbounds i8, ptr %this, i64 984
  %9 = load i64, ptr %externalBytes_.i.i, align 8
  %add.i1 = add i64 %9, %8
  %add = add i64 %add.i1, %mul.i
  ret i64 %add
}